(dp1
S'</s>'
p2
I0
sS' '
I1
sS'$'
I2
sS'('
I3
sS','
I4
sS'0'
I5
sS'4'
I6
sS'8'
I7
sS'<'
I8
sS'@'
I9
sS'D'
I10
sS'H'
I11
sS'L'
I12
sS'P'
I13
sS'T'
I14
sS'X'
I15
sS'\\'
I16
sS'`'
I17
sS'd'
I18
sS'h'
I19
sS'l'
I20
sS'p'
I21
sS't'
I22
sS'x'
I23
sS'|'
I24
sS'#'
I25
sS"'"
I26
sS'+'
I27
sS'/'
I28
sS'3'
I29
sS'7'
I30
sS';'
I31
sS'?'
I32
sS'C'
I33
sS'G'
I34
sS'K'
I35
sS'O'
I36
sS'S'
I37
sS'W'
I38
sS'['
I39
sS'_'
I40
sS'c'
I41
sS'g'
I42
sS'k'
I43
sS'o'
I44
sS's'
I45
sS'w'
I46
sS'{'
I47
sS'"'
I48
sS'&'
I49
sS'<s>'
p3
I50
sS'*'
I51
sS'.'
I52
sS'2'
I53
sS'6'
I54
sS':'
I55
sS'>'
I56
sS'B'
I57
sS'F'
I58
sS'J'
I59
sS'N'
I60
sS'R'
I61
sS'V'
I62
sS'Z'
I63
sS'^'
I64
sS'b'
I65
sS'f'
I66
sS'j'
I67
sS'n'
I68
sS'r'
I69
sS'v'
I70
sS'z'
I71
sS'~'
I72
sS'<pad>'
p4
I73
sS'!'
I74
sS'%'
I75
sS')'
I76
sS'-'
I77
sS'1'
I78
sS'5'
I79
sS'9'
I80
sS'='
I81
sS'A'
I82
sS'E'
I83
sS'I'
I84
sS'M'
I85
sS'Q'
I86
sS'U'
I87
sS'Y'
I88
sS']'
I89
sS'a'
I90
sS'e'
I91
sS'i'
I92
sS'm'
I93
sS'q'
I94
sS'u'
I95
sS'y'
I96
sS'}'
I97
s.